target datalayout = "e-m:e-p270:32:32-p271:32:32-p272:64:64-i64:64-i128:128-f80:128-n8:16:32:64-S128"
target triple = "x86_64-pc-linux-gnu"

%struct.lv_point_t = type { i32, i32 }

; Function Attrs: nounwind uwtable
define void @lv_point_array_transform(ptr noundef %0, i64 noundef %1, i32 noundef %2, i32 noundef %3, i32 noundef %4, ptr noundef %5, i1 noundef zeroext %6) #0 {
  %8 = alloca ptr, align 8
  %9 = alloca i64, align 8
  %10 = alloca i32, align 4
  %11 = alloca i32, align 4
  %12 = alloca i32, align 4
  %13 = alloca ptr, align 8
  %14 = alloca i8, align 1
  %15 = alloca i32, align 4
  %16 = alloca i32, align 4
  %17 = alloca i32, align 4
  %18 = alloca i32, align 4
  %19 = alloca i32, align 4
  %20 = alloca i32, align 4
  %21 = alloca i32, align 4
  %22 = alloca i32, align 4
  %23 = alloca i32, align 4
  %24 = alloca i32, align 4
  %25 = alloca i32, align 4
  %26 = alloca i32, align 4
  %27 = alloca i32, align 4
  %28 = alloca i32, align 4
  store ptr %0, ptr %8, align 8, !tbaa !3
  store i64 %1, ptr %9, align 8, !tbaa !23
  store i32 %2, ptr %10, align 4, !tbaa !7
  store i32 %3, ptr %11, align 4, !tbaa !7
  store i32 %4, ptr %12, align 4, !tbaa !7
  store ptr %5, ptr %13, align 8, !tbaa !3
  %29 = zext i1 %6 to i8
  store i8 %29, ptr %14, align 1, !tbaa !14
  %30 = load i32, ptr %10, align 4, !tbaa !7
  %31 = icmp eq i32 %30, 0
  br i1 %31, label %32, label %39

32:                                               ; preds = %7
  %33 = load i32, ptr %11, align 4, !tbaa !7
  %34 = icmp eq i32 %33, 256
  br i1 %34, label %35, label %39

35:                                               ; preds = %32
  %36 = load i32, ptr %12, align 4, !tbaa !7
  %37 = icmp eq i32 %36, 256
  br i1 %37, label %38, label %39

38:                                               ; preds = %35
  br label %326

39:                                               ; preds = %35, %32, %7
  call void @llvm.lifetime.start.p0(i64 4, ptr %15) #5
  store i32 0, ptr %15, align 4, !tbaa !7
  br label %40

40:                                               ; preds = %66, %39
  %41 = load i32, ptr %15, align 4, !tbaa !7
  %42 = zext i32 %41 to i64
  %43 = load i64, ptr %9, align 8, !tbaa !23
  %44 = icmp ult i64 %42, %43
  br i1 %44, label %45, label %69

45:                                               ; preds = %40
  %46 = load ptr, ptr %13, align 8, !tbaa !3
  %47 = getelementptr inbounds nuw %struct.lv_point_t, ptr %46, i32 0, i32 0
  %48 = load i32, ptr %47, align 4, !tbaa !20
  %49 = load ptr, ptr %8, align 8, !tbaa !3
  %50 = load i32, ptr %15, align 4, !tbaa !7
  %51 = zext i32 %50 to i64
  %52 = getelementptr inbounds nuw %struct.lv_point_t, ptr %49, i64 %51
  %53 = getelementptr inbounds nuw %struct.lv_point_t, ptr %52, i32 0, i32 0
  %54 = load i32, ptr %53, align 4, !tbaa !20
  %55 = sub nsw i32 %54, %48
  store i32 %55, ptr %53, align 4, !tbaa !20
  %56 = load ptr, ptr %13, align 8, !tbaa !3
  %57 = getelementptr inbounds nuw %struct.lv_point_t, ptr %56, i32 0, i32 1
  %58 = load i32, ptr %57, align 4, !tbaa !22
  %59 = load ptr, ptr %8, align 8, !tbaa !3
  %60 = load i32, ptr %15, align 4, !tbaa !7
  %61 = zext i32 %60 to i64
  %62 = getelementptr inbounds nuw %struct.lv_point_t, ptr %59, i64 %61
  %63 = getelementptr inbounds nuw %struct.lv_point_t, ptr %62, i32 0, i32 1
  %64 = load i32, ptr %63, align 4, !tbaa !22
  %65 = sub nsw i32 %64, %58
  store i32 %65, ptr %63, align 4, !tbaa !22
  br label %66

66:                                               ; preds = %45
  %67 = load i32, ptr %15, align 4, !tbaa !7
  %68 = add i32 %67, 1
  store i32 %68, ptr %15, align 4, !tbaa !7
  br label %40, !llvm.loop !25

69:                                               ; preds = %40
  %70 = load i32, ptr %10, align 4, !tbaa !7
  %71 = icmp eq i32 %70, 0
  br i1 %71, label %72, label %119

72:                                               ; preds = %69
  store i32 0, ptr %15, align 4, !tbaa !7
  br label %73

73:                                               ; preds = %115, %72
  %74 = load i32, ptr %15, align 4, !tbaa !7
  %75 = zext i32 %74 to i64
  %76 = load i64, ptr %9, align 8, !tbaa !23
  %77 = icmp ult i64 %75, %76
  br i1 %77, label %78, label %118

78:                                               ; preds = %73
  %79 = load ptr, ptr %8, align 8, !tbaa !3
  %80 = load i32, ptr %15, align 4, !tbaa !7
  %81 = zext i32 %80 to i64
  %82 = getelementptr inbounds nuw %struct.lv_point_t, ptr %79, i64 %81
  %83 = getelementptr inbounds nuw %struct.lv_point_t, ptr %82, i32 0, i32 0
  %84 = load i32, ptr %83, align 4, !tbaa !20
  %85 = load i32, ptr %11, align 4, !tbaa !7
  %86 = mul nsw i32 %84, %85
  %87 = ashr i32 %86, 8
  %88 = load ptr, ptr %13, align 8, !tbaa !3
  %89 = getelementptr inbounds nuw %struct.lv_point_t, ptr %88, i32 0, i32 0
  %90 = load i32, ptr %89, align 4, !tbaa !20
  %91 = add nsw i32 %87, %90
  %92 = load ptr, ptr %8, align 8, !tbaa !3
  %93 = load i32, ptr %15, align 4, !tbaa !7
  %94 = zext i32 %93 to i64
  %95 = getelementptr inbounds nuw %struct.lv_point_t, ptr %92, i64 %94
  %96 = getelementptr inbounds nuw %struct.lv_point_t, ptr %95, i32 0, i32 0
  store i32 %91, ptr %96, align 4, !tbaa !20
  %97 = load ptr, ptr %8, align 8, !tbaa !3
  %98 = load i32, ptr %15, align 4, !tbaa !7
  %99 = zext i32 %98 to i64
  %100 = getelementptr inbounds nuw %struct.lv_point_t, ptr %97, i64 %99
  %101 = getelementptr inbounds nuw %struct.lv_point_t, ptr %100, i32 0, i32 1
  %102 = load i32, ptr %101, align 4, !tbaa !22
  %103 = load i32, ptr %12, align 4, !tbaa !7
  %104 = mul nsw i32 %102, %103
  %105 = ashr i32 %104, 8
  %106 = load ptr, ptr %13, align 8, !tbaa !3
  %107 = getelementptr inbounds nuw %struct.lv_point_t, ptr %106, i32 0, i32 1
  %108 = load i32, ptr %107, align 4, !tbaa !22
  %109 = add nsw i32 %105, %108
  %110 = load ptr, ptr %8, align 8, !tbaa !3
  %111 = load i32, ptr %15, align 4, !tbaa !7
  %112 = zext i32 %111 to i64
  %113 = getelementptr inbounds nuw %struct.lv_point_t, ptr %110, i64 %112
  %114 = getelementptr inbounds nuw %struct.lv_point_t, ptr %113, i32 0, i32 1
  store i32 %109, ptr %114, align 4, !tbaa !22
  br label %115

115:                                              ; preds = %78
  %116 = load i32, ptr %15, align 4, !tbaa !7
  %117 = add i32 %116, 1
  store i32 %117, ptr %15, align 4, !tbaa !7
  br label %73, !llvm.loop !27

118:                                              ; preds = %73
  store i32 1, ptr %16, align 4
  br label %324

119:                                              ; preds = %69
  call void @llvm.lifetime.start.p0(i64 4, ptr %17) #5
  %120 = load i32, ptr %10, align 4, !tbaa !7
  store i32 %120, ptr %17, align 4, !tbaa !7
  %121 = load i32, ptr %17, align 4, !tbaa !7
  %122 = icmp sgt i32 %121, 3600
  br i1 %122, label %123, label %126

123:                                              ; preds = %119
  %124 = load i32, ptr %17, align 4, !tbaa !7
  %125 = sub nsw i32 %124, 3600
  store i32 %125, ptr %17, align 4, !tbaa !7
  br label %126

126:                                              ; preds = %123, %119
  %127 = load i32, ptr %17, align 4, !tbaa !7
  %128 = icmp slt i32 %127, 0
  br i1 %128, label %129, label %132

129:                                              ; preds = %126
  %130 = load i32, ptr %17, align 4, !tbaa !7
  %131 = add nsw i32 %130, 3600
  store i32 %131, ptr %17, align 4, !tbaa !7
  br label %132

132:                                              ; preds = %129, %126
  call void @llvm.lifetime.start.p0(i64 4, ptr %18) #5
  %133 = load i32, ptr %17, align 4, !tbaa !7
  %134 = sdiv i32 %133, 10
  store i32 %134, ptr %18, align 4, !tbaa !7
  call void @llvm.lifetime.start.p0(i64 4, ptr %19) #5
  %135 = load i32, ptr %18, align 4, !tbaa !7
  %136 = add nsw i32 %135, 1
  store i32 %136, ptr %19, align 4, !tbaa !7
  call void @llvm.lifetime.start.p0(i64 4, ptr %20) #5
  %137 = load i32, ptr %17, align 4, !tbaa !7
  %138 = load i32, ptr %18, align 4, !tbaa !7
  %139 = mul nsw i32 %138, 10
  %140 = sub nsw i32 %137, %139
  store i32 %140, ptr %20, align 4, !tbaa !7
  call void @llvm.lifetime.start.p0(i64 4, ptr %21) #5
  %141 = load i32, ptr %18, align 4, !tbaa !7
  %142 = trunc i32 %141 to i16
  %143 = call i32 @lv_trigo_sin(i16 noundef signext %142)
  store i32 %143, ptr %21, align 4, !tbaa !7
  call void @llvm.lifetime.start.p0(i64 4, ptr %22) #5
  %144 = load i32, ptr %19, align 4, !tbaa !7
  %145 = trunc i32 %144 to i16
  %146 = call i32 @lv_trigo_sin(i16 noundef signext %145)
  store i32 %146, ptr %22, align 4, !tbaa !7
  call void @llvm.lifetime.start.p0(i64 4, ptr %23) #5
  %147 = load i32, ptr %18, align 4, !tbaa !7
  %148 = add nsw i32 %147, 90
  %149 = trunc i32 %148 to i16
  %150 = call i32 @lv_trigo_sin(i16 noundef signext %149)
  store i32 %150, ptr %23, align 4, !tbaa !7
  call void @llvm.lifetime.start.p0(i64 4, ptr %24) #5
  %151 = load i32, ptr %19, align 4, !tbaa !7
  %152 = add nsw i32 %151, 90
  %153 = trunc i32 %152 to i16
  %154 = call i32 @lv_trigo_sin(i16 noundef signext %153)
  store i32 %154, ptr %24, align 4, !tbaa !7
  call void @llvm.lifetime.start.p0(i64 4, ptr %25) #5
  %155 = load i32, ptr %21, align 4, !tbaa !7
  %156 = load i32, ptr %20, align 4, !tbaa !7
  %157 = sub nsw i32 10, %156
  %158 = mul nsw i32 %155, %157
  %159 = load i32, ptr %22, align 4, !tbaa !7
  %160 = load i32, ptr %20, align 4, !tbaa !7
  %161 = mul nsw i32 %159, %160
  %162 = add nsw i32 %158, %161
  %163 = sdiv i32 %162, 10
  store i32 %163, ptr %25, align 4, !tbaa !7
  %164 = load i32, ptr %25, align 4, !tbaa !7
  %165 = ashr i32 %164, 5
  store i32 %165, ptr %25, align 4, !tbaa !7
  call void @llvm.lifetime.start.p0(i64 4, ptr %26) #5
  %166 = load i32, ptr %23, align 4, !tbaa !7
  %167 = load i32, ptr %20, align 4, !tbaa !7
  %168 = sub nsw i32 10, %167
  %169 = mul nsw i32 %166, %168
  %170 = load i32, ptr %24, align 4, !tbaa !7
  %171 = load i32, ptr %20, align 4, !tbaa !7
  %172 = mul nsw i32 %170, %171
  %173 = add nsw i32 %169, %172
  %174 = sdiv i32 %173, 10
  store i32 %174, ptr %26, align 4, !tbaa !7
  %175 = load i32, ptr %26, align 4, !tbaa !7
  %176 = ashr i32 %175, 5
  store i32 %176, ptr %26, align 4, !tbaa !7
  store i32 0, ptr %15, align 4, !tbaa !7
  br label %177

177:                                              ; preds = %320, %132
  %178 = load i32, ptr %15, align 4, !tbaa !7
  %179 = zext i32 %178 to i64
  %180 = load i64, ptr %9, align 8, !tbaa !23
  %181 = icmp ult i64 %179, %180
  br i1 %181, label %182, label %323

182:                                              ; preds = %177
  call void @llvm.lifetime.start.p0(i64 4, ptr %27) #5
  %183 = load ptr, ptr %8, align 8, !tbaa !3
  %184 = load i32, ptr %15, align 4, !tbaa !7
  %185 = zext i32 %184 to i64
  %186 = getelementptr inbounds nuw %struct.lv_point_t, ptr %183, i64 %185
  %187 = getelementptr inbounds nuw %struct.lv_point_t, ptr %186, i32 0, i32 0
  %188 = load i32, ptr %187, align 4, !tbaa !20
  store i32 %188, ptr %27, align 4, !tbaa !7
  call void @llvm.lifetime.start.p0(i64 4, ptr %28) #5
  %189 = load ptr, ptr %8, align 8, !tbaa !3
  %190 = load i32, ptr %15, align 4, !tbaa !7
  %191 = zext i32 %190 to i64
  %192 = getelementptr inbounds nuw %struct.lv_point_t, ptr %189, i64 %191
  %193 = getelementptr inbounds nuw %struct.lv_point_t, ptr %192, i32 0, i32 1
  %194 = load i32, ptr %193, align 4, !tbaa !22
  store i32 %194, ptr %28, align 4, !tbaa !7
  %195 = load i32, ptr %11, align 4, !tbaa !7
  %196 = icmp eq i32 %195, 256
  br i1 %196, label %197, label %235

197:                                              ; preds = %182
  %198 = load i32, ptr %12, align 4, !tbaa !7
  %199 = icmp eq i32 %198, 256
  br i1 %199, label %200, label %235

200:                                              ; preds = %197
  %201 = load i32, ptr %26, align 4, !tbaa !7
  %202 = load i32, ptr %27, align 4, !tbaa !7
  %203 = mul nsw i32 %201, %202
  %204 = load i32, ptr %25, align 4, !tbaa !7
  %205 = load i32, ptr %28, align 4, !tbaa !7
  %206 = mul nsw i32 %204, %205
  %207 = sub nsw i32 %203, %206
  %208 = ashr i32 %207, 10
  %209 = load ptr, ptr %13, align 8, !tbaa !3
  %210 = getelementptr inbounds nuw %struct.lv_point_t, ptr %209, i32 0, i32 0
  %211 = load i32, ptr %210, align 4, !tbaa !20
  %212 = add nsw i32 %208, %211
  %213 = load ptr, ptr %8, align 8, !tbaa !3
  %214 = load i32, ptr %15, align 4, !tbaa !7
  %215 = zext i32 %214 to i64
  %216 = getelementptr inbounds nuw %struct.lv_point_t, ptr %213, i64 %215
  %217 = getelementptr inbounds nuw %struct.lv_point_t, ptr %216, i32 0, i32 0
  store i32 %212, ptr %217, align 4, !tbaa !20
  %218 = load i32, ptr %25, align 4, !tbaa !7
  %219 = load i32, ptr %27, align 4, !tbaa !7
  %220 = mul nsw i32 %218, %219
  %221 = load i32, ptr %26, align 4, !tbaa !7
  %222 = load i32, ptr %28, align 4, !tbaa !7
  %223 = mul nsw i32 %221, %222
  %224 = add nsw i32 %220, %223
  %225 = ashr i32 %224, 10
  %226 = load ptr, ptr %13, align 8, !tbaa !3
  %227 = getelementptr inbounds nuw %struct.lv_point_t, ptr %226, i32 0, i32 1
  %228 = load i32, ptr %227, align 4, !tbaa !22
  %229 = add nsw i32 %225, %228
  %230 = load ptr, ptr %8, align 8, !tbaa !3
  %231 = load i32, ptr %15, align 4, !tbaa !7
  %232 = zext i32 %231 to i64
  %233 = getelementptr inbounds nuw %struct.lv_point_t, ptr %230, i64 %232
  %234 = getelementptr inbounds nuw %struct.lv_point_t, ptr %233, i32 0, i32 1
  store i32 %229, ptr %234, align 4, !tbaa !22
  br label %319

235:                                              ; preds = %197, %182
  %236 = load i8, ptr %14, align 1, !tbaa !14, !range !16, !noundef !17
  %237 = trunc i8 %236 to i1
  br i1 %237, label %238, label %279

238:                                              ; preds = %235
  %239 = load i32, ptr %11, align 4, !tbaa !7
  %240 = load i32, ptr %27, align 4, !tbaa !7
  %241 = mul nsw i32 %240, %239
  store i32 %241, ptr %27, align 4, !tbaa !7
  %242 = load i32, ptr %12, align 4, !tbaa !7
  %243 = load i32, ptr %28, align 4, !tbaa !7
  %244 = mul nsw i32 %243, %242
  store i32 %244, ptr %28, align 4, !tbaa !7
  %245 = load i32, ptr %26, align 4, !tbaa !7
  %246 = load i32, ptr %27, align 4, !tbaa !7
  %247 = mul nsw i32 %245, %246
  %248 = load i32, ptr %25, align 4, !tbaa !7
  %249 = load i32, ptr %28, align 4, !tbaa !7
  %250 = mul nsw i32 %248, %249
  %251 = sub nsw i32 %247, %250
  %252 = ashr i32 %251, 18
  %253 = load ptr, ptr %13, align 8, !tbaa !3
  %254 = getelementptr inbounds nuw %struct.lv_point_t, ptr %253, i32 0, i32 0
  %255 = load i32, ptr %254, align 4, !tbaa !20
  %256 = add nsw i32 %252, %255
  %257 = load ptr, ptr %8, align 8, !tbaa !3
  %258 = load i32, ptr %15, align 4, !tbaa !7
  %259 = zext i32 %258 to i64
  %260 = getelementptr inbounds nuw %struct.lv_point_t, ptr %257, i64 %259
  %261 = getelementptr inbounds nuw %struct.lv_point_t, ptr %260, i32 0, i32 0
  store i32 %256, ptr %261, align 4, !tbaa !20
  %262 = load i32, ptr %25, align 4, !tbaa !7
  %263 = load i32, ptr %27, align 4, !tbaa !7
  %264 = mul nsw i32 %262, %263
  %265 = load i32, ptr %26, align 4, !tbaa !7
  %266 = load i32, ptr %28, align 4, !tbaa !7
  %267 = mul nsw i32 %265, %266
  %268 = add nsw i32 %264, %267
  %269 = ashr i32 %268, 18
  %270 = load ptr, ptr %13, align 8, !tbaa !3
  %271 = getelementptr inbounds nuw %struct.lv_point_t, ptr %270, i32 0, i32 1
  %272 = load i32, ptr %271, align 4, !tbaa !22
  %273 = add nsw i32 %269, %272
  %274 = load ptr, ptr %8, align 8, !tbaa !3
  %275 = load i32, ptr %15, align 4, !tbaa !7
  %276 = zext i32 %275 to i64
  %277 = getelementptr inbounds nuw %struct.lv_point_t, ptr %274, i64 %276
  %278 = getelementptr inbounds nuw %struct.lv_point_t, ptr %277, i32 0, i32 1
  store i32 %273, ptr %278, align 4, !tbaa !22
  br label %318

279:                                              ; preds = %235
  %280 = load i32, ptr %26, align 4, !tbaa !7
  %281 = load i32, ptr %27, align 4, !tbaa !7
  %282 = mul nsw i32 %280, %281
  %283 = load i32, ptr %25, align 4, !tbaa !7
  %284 = load i32, ptr %28, align 4, !tbaa !7
  %285 = mul nsw i32 %283, %284
  %286 = sub nsw i32 %282, %285
  %287 = load i32, ptr %11, align 4, !tbaa !7
  %288 = mul nsw i32 %286, %287
  %289 = ashr i32 %288, 18
  %290 = load ptr, ptr %13, align 8, !tbaa !3
  %291 = getelementptr inbounds nuw %struct.lv_point_t, ptr %290, i32 0, i32 0
  %292 = load i32, ptr %291, align 4, !tbaa !20
  %293 = add nsw i32 %289, %292
  %294 = load ptr, ptr %8, align 8, !tbaa !3
  %295 = load i32, ptr %15, align 4, !tbaa !7
  %296 = zext i32 %295 to i64
  %297 = getelementptr inbounds nuw %struct.lv_point_t, ptr %294, i64 %296
  %298 = getelementptr inbounds nuw %struct.lv_point_t, ptr %297, i32 0, i32 0
  store i32 %293, ptr %298, align 4, !tbaa !20
  %299 = load i32, ptr %25, align 4, !tbaa !7
  %300 = load i32, ptr %27, align 4, !tbaa !7
  %301 = mul nsw i32 %299, %300
  %302 = load i32, ptr %26, align 4, !tbaa !7
  %303 = load i32, ptr %28, align 4, !tbaa !7
  %304 = mul nsw i32 %302, %303
  %305 = add nsw i32 %301, %304
  %306 = load i32, ptr %12, align 4, !tbaa !7
  %307 = mul nsw i32 %305, %306
  %308 = ashr i32 %307, 18
  %309 = load ptr, ptr %13, align 8, !tbaa !3
  %310 = getelementptr inbounds nuw %struct.lv_point_t, ptr %309, i32 0, i32 1
  %311 = load i32, ptr %310, align 4, !tbaa !22
  %312 = add nsw i32 %308, %311
  %313 = load ptr, ptr %8, align 8, !tbaa !3
  %314 = load i32, ptr %15, align 4, !tbaa !7
  %315 = zext i32 %314 to i64
  %316 = getelementptr inbounds nuw %struct.lv_point_t, ptr %313, i64 %315
  %317 = getelementptr inbounds nuw %struct.lv_point_t, ptr %316, i32 0, i32 1
  store i32 %312, ptr %317, align 4, !tbaa !22
  br label %318

318:                                              ; preds = %279, %238
  br label %319

319:                                              ; preds = %318, %200
  call void @llvm.lifetime.end.p0(i64 4, ptr %28) #5
  call void @llvm.lifetime.end.p0(i64 4, ptr %27) #5
  br label %320

320:                                              ; preds = %319
  %321 = load i32, ptr %15, align 4, !tbaa !7
  %322 = add i32 %321, 1
  store i32 %322, ptr %15, align 4, !tbaa !7
  br label %177, !llvm.loop !28

323:                                              ; preds = %177
  call void @llvm.lifetime.end.p0(i64 4, ptr %26) #5
  call void @llvm.lifetime.end.p0(i64 4, ptr %25) #5
  call void @llvm.lifetime.end.p0(i64 4, ptr %24) #5
  call void @llvm.lifetime.end.p0(i64 4, ptr %23) #5
  call void @llvm.lifetime.end.p0(i64 4, ptr %22) #5
  call void @llvm.lifetime.end.p0(i64 4, ptr %21) #5
  call void @llvm.lifetime.end.p0(i64 4, ptr %20) #5
  call void @llvm.lifetime.end.p0(i64 4, ptr %19) #5
  call void @llvm.lifetime.end.p0(i64 4, ptr %18) #5
  call void @llvm.lifetime.end.p0(i64 4, ptr %17) #5
  store i32 0, ptr %16, align 4
  br label %324

324:                                              ; preds = %323, %118
  call void @llvm.lifetime.end.p0(i64 4, ptr %15) #5
  %325 = load i32, ptr %16, align 4
  switch i32 %325, label %327 [
    i32 0, label %326
    i32 1, label %326
  ]

326:                                              ; preds = %38, %324, %324
  ret void

327:                                              ; preds = %324
  unreachable
}