; Function Attrs: nounwind uwtable
define void @lv_point_array_transform(ptr noundef captures(none) %0, i64 noundef %1, i32 noundef %2, i32 noundef %3, i32 noundef %4, ptr noundef readonly captures(none) %5, i1 noundef zeroext %6) local_unnamed_addr #4 {
  %8 = icmp eq i32 %2, 0
  %9 = icmp eq i32 %3, 256
  %or.cond = and i1 %8, %9
  %10 = icmp eq i32 %4, 256
  %or.cond3 = and i1 %or.cond, %10
  br i1 %or.cond3, label %.loopexit, label %.preheader121

.preheader121:                                    ; preds = %7
  %.not = icmp eq i64 %1, 0
  br i1 %.not, label %._crit_edge.thread, label %.lr.ph

.lr.ph:                                           ; preds = %.preheader121
  %11 = getelementptr inbounds nuw i8, ptr %5, i64 4
  br label %12

12:                                               ; preds = %.lr.ph, %12
  %13 = phi i64 [ 0, %.lr.ph ], [ %23, %12 ]
  %.0122 = phi i32 [ 0, %.lr.ph ], [ %22, %12 ]
  %14 = load i32, ptr %5, align 4, !tbaa !12
  %15 = getelementptr inbounds nuw %struct.lv_point_t, ptr %0, i64 %13
  %16 = load i32, ptr %15, align 4, !tbaa !12
  %17 = sub nsw i32 %16, %14
  store i32 %17, ptr %15, align 4, !tbaa !12
  %18 = load i32, ptr %11, align 4, !tbaa !14
  %19 = getelementptr inbounds nuw i8, ptr %15, i64 4
  %20 = load i32, ptr %19, align 4, !tbaa !14
  %21 = sub nsw i32 %20, %18
  store i32 %21, ptr %19, align 4, !tbaa !14
  %22 = add i32 %.0122, 1
  %23 = zext i32 %22 to i64
  %24 = icmp ugt i64 %1, %23
  br i1 %24, label %12, label %._crit_edge, !llvm.loop !15

._crit_edge:                                      ; preds = %12
  br i1 %8, label %.lr.ph137, label %43

._crit_edge.thread:                               ; preds = %.preheader121
  br i1 %8, label %.loopexit, label %43

.lr.ph137:                                        ; preds = %._crit_edge
  %25 = getelementptr inbounds nuw i8, ptr %5, i64 4
  br label %26

26:                                               ; preds = %.lr.ph137, %26
  %27 = phi i64 [ 0, %.lr.ph137 ], [ %41, %26 ]
  %.1136 = phi i32 [ 0, %.lr.ph137 ], [ %40, %26 ]
  %28 = getelementptr inbounds nuw %struct.lv_point_t, ptr %0, i64 %27
  %29 = load i32, ptr %28, align 4, !tbaa !12
  %30 = mul nsw i32 %29, %3
  %31 = ashr i32 %30, 8
  %32 = load i32, ptr %5, align 4, !tbaa !12
  %33 = add nsw i32 %31, %32
  store i32 %33, ptr %28, align 4, !tbaa !12
  %34 = getelementptr inbounds nuw i8, ptr %28, i64 4
  %35 = load i32, ptr %34, align 4, !tbaa !14
  %36 = mul nsw i32 %35, %4
  %37 = ashr i32 %36, 8
  %38 = load i32, ptr %25, align 4, !tbaa !14
  %39 = add nsw i32 %37, %38
  store i32 %39, ptr %34, align 4, !tbaa !14
  %40 = add i32 %.1136, 1
  %41 = zext i32 %40 to i64
  %42 = icmp ugt i64 %1, %41
  br i1 %42, label %26, label %.loopexit, !llvm.loop !17

43:                                               ; preds = %._crit_edge.thread, %._crit_edge
  %44 = icmp sgt i32 %2, 3600
  %45 = add nsw i32 %2, -3600
  %spec.select = select i1 %44, i32 %45, i32 %2
  %46 = icmp slt i32 %spec.select, 0
  %47 = add nsw i32 %spec.select, 3600
  %.1114 = select i1 %46, i32 %47, i32 %spec.select
  %48 = sdiv i32 %.1114, 10
  %.neg = mul nsw i32 %48, -10
  %49 = add i32 %.neg, %.1114
  %50 = trunc i32 %48 to i16
  %51 = tail call i32 @lv_trigo_sin(i16 noundef signext %50) #9
  %52 = add i16 %50, 1
  %53 = tail call i32 @lv_trigo_sin(i16 noundef signext %52) #9
  %54 = add i16 %50, 90
  %55 = tail call i32 @lv_trigo_sin(i16 noundef signext %54) #9
  %56 = add i16 %50, 91
  %57 = tail call i32 @lv_trigo_sin(i16 noundef signext %56) #9
  %58 = sub nsw i32 10, %49
  %59 = mul nsw i32 %51, %58
  %60 = mul nsw i32 %53, %49
  %61 = add nsw i32 %60, %59
  %62 = sdiv i32 %61, 10
  %63 = ashr i32 %62, 5
  %64 = mul nsw i32 %55, %58
  %65 = mul nsw i32 %57, %49
  %66 = add nsw i32 %65, %64
  %67 = sdiv i32 %66, 10
  %68 = ashr i32 %67, 5
  %factor.op.mul = mul i32 %63, %4
  %factor.op.mul123 = mul i32 %68, %4
  %invariant.op = mul i32 %3, %68
  %factor.op.mul128 = mul i32 %3, %63
  br i1 %.not, label %.loopexit, label %.lr.ph134

.lr.ph134:                                        ; preds = %43
  %or.cond5 = and i1 %9, %10
  %69 = getelementptr inbounds nuw i8, ptr %5, i64 4
  br i1 %or.cond5, label %.lr.ph134.split.us, label %.lr.ph134.split

.lr.ph134.split.us:                               ; preds = %.lr.ph134, %.lr.ph134.split.us
  %70 = phi i64 [ %88, %.lr.ph134.split.us ], [ 0, %.lr.ph134 ]
  %.2132.us = phi i32 [ %87, %.lr.ph134.split.us ], [ 0, %.lr.ph134 ]
  %71 = getelementptr inbounds nuw %struct.lv_point_t, ptr %0, i64 %70
  %72 = load i32, ptr %71, align 4, !tbaa !12
  %73 = getelementptr inbounds nuw i8, ptr %71, i64 4
  %74 = load i32, ptr %73, align 4, !tbaa !14
  %75 = mul nsw i32 %72, %68
  %76 = mul nsw i32 %74, %63
  %77 = sub nsw i32 %75, %76
  %78 = ashr i32 %77, 10
  %79 = load i32, ptr %5, align 4, !tbaa !12
  %80 = add nsw i32 %79, %78
  store i32 %80, ptr %71, align 4, !tbaa !12
  %81 = mul nsw i32 %72, %63
  %82 = mul nsw i32 %74, %68
  %83 = add nsw i32 %82, %81
  %84 = ashr i32 %83, 10
  %85 = load i32, ptr %69, align 4, !tbaa !14
  %86 = add nsw i32 %85, %84
  store i32 %86, ptr %73, align 4, !tbaa !14
  %87 = add i32 %.2132.us, 1
  %88 = zext i32 %87 to i64
  %89 = icmp ugt i64 %1, %88
  br i1 %89, label %.lr.ph134.split.us, label %.loopexit, !llvm.loop !18

.lr.ph134.split:                                  ; preds = %.lr.ph134
  br i1 %6, label %.lr.ph134.split.split.us, label %.lr.ph134.split.split

.lr.ph134.split.split.us:                         ; preds = %.lr.ph134.split, %.lr.ph134.split.split.us
  %90 = phi i64 [ %104, %.lr.ph134.split.split.us ], [ 0, %.lr.ph134.split ]
  %.2132.us135 = phi i32 [ %103, %.lr.ph134.split.split.us ], [ 0, %.lr.ph134.split ]
  %91 = getelementptr inbounds nuw %struct.lv_point_t, ptr %0, i64 %90
  %92 = load i32, ptr %91, align 4, !tbaa !12
  %93 = getelementptr inbounds nuw i8, ptr %91, i64 4
  %94 = load i32, ptr %93, align 4, !tbaa !14
  %.reass129.us = mul i32 %92, %factor.op.mul128
  %.reass131.us = mul i32 %94, %factor.op.mul123
  %.reass125.us = mul i32 %92, %invariant.op
  %.reass127.us = mul i32 %94, %factor.op.mul
  %95 = sub nsw i32 %.reass125.us, %.reass127.us
  %96 = ashr i32 %95, 18
  %97 = load i32, ptr %5, align 4, !tbaa !12
  %98 = add nsw i32 %97, %96
  store i32 %98, ptr %91, align 4, !tbaa !12
  %99 = add nsw i32 %.reass131.us, %.reass129.us
  %100 = ashr i32 %99, 18
  %101 = load i32, ptr %69, align 4, !tbaa !14
  %102 = add nsw i32 %101, %100
  store i32 %102, ptr %93, align 4, !tbaa !14
  %103 = add i32 %.2132.us135, 1
  %104 = zext i32 %103 to i64
  %105 = icmp ugt i64 %1, %104
  br i1 %105, label %.lr.ph134.split.split.us, label %.loopexit, !llvm.loop !18

.lr.ph134.split.split:                            ; preds = %.lr.ph134.split, %.lr.ph134.split.split
  %106 = phi i64 [ %123, %.lr.ph134.split.split ], [ 0, %.lr.ph134.split ]
  %.2132 = phi i32 [ %122, %.lr.ph134.split.split ], [ 0, %.lr.ph134.split ]
  %107 = getelementptr inbounds nuw %struct.lv_point_t, ptr %0, i64 %106
  %108 = load i32, ptr %107, align 4, !tbaa !12
  %109 = getelementptr inbounds nuw i8, ptr %107, i64 4
  %110 = load i32, ptr %109, align 4, !tbaa !14
  %111 = mul nsw i32 %108, %68
  %112 = mul nsw i32 %110, %63
  %113 = sub nsw i32 %111, %112
  %114 = mul nsw i32 %113, %3
  %115 = ashr i32 %114, 18
  %116 = load i32, ptr %5, align 4, !tbaa !12
  %117 = add nsw i32 %116, %115
  store i32 %117, ptr %107, align 4, !tbaa !12
  %.reass = mul i32 %108, %factor.op.mul
  %.reass124 = mul i32 %110, %factor.op.mul123
  %118 = add i32 %.reass124, %.reass
  %119 = ashr i32 %118, 18
  %120 = load i32, ptr %69, align 4, !tbaa !14
  %121 = add nsw i32 %120, %119
  store i32 %121, ptr %109, align 4, !tbaa !14
  %122 = add i32 %.2132, 1
  %123 = zext i32 %122 to i64
  %124 = icmp ugt i64 %1, %123
  br i1 %124, label %.lr.ph134.split.split, label %.loopexit, !llvm.loop !18

.loopexit:                                        ; preds = %26, %.lr.ph134.split.split, %.lr.ph134.split.split.us, %.lr.ph134.split.us, %._crit_edge.thread, %43, %7
  ret void
}